; ModuleID = '21/740.c'
source_filename = "21/740.c"
target datalayout = "e-m:e-p270:32:32-p271:32:32-p272:64:64-i64:64-f80:128-n8:16:32:64-S128"
target triple = "x86_64-pc-linux-gnu"

@.str = private unnamed_addr constant [3 x i8] c"%d\00", align 1
@.str.1 = private unnamed_addr constant [4 x i8] c"%d,\00", align 1

; Function Attrs: noinline nounwind uwtable
define dso_local i32 @main() #0 {
  %1 = alloca i32, align 4
  %2 = alloca i32, align 4
  %3 = alloca i32, align 4
  %4 = alloca i32, align 4
  %5 = alloca [300 x i32], align 16
  %6 = alloca [300 x float], align 16
  %7 = alloca [300 x i32], align 16
  %8 = alloca i32, align 4
  %9 = alloca i32, align 4
  %10 = alloca i32, align 4
  %11 = alloca float, align 4
  %12 = alloca float, align 4
  store i32 0, i32* %1, align 4
  store i32 0, i32* %8, align 4
  store i32 0, i32* %9, align 4
  store float 0.000000e+00, float* %12, align 4
  %13 = call i32 (i8*, ...) @__isoc99_scanf(i8* getelementptr inbounds ([3 x i8], [3 x i8]* @.str, i64 0, i64 0), i32* %2)
  store i32 0, i32* %3, align 4
  br label %14

14:                                               ; preds = %29, %0
  %15 = load i32, i32* %3, align 4
  %16 = load i32, i32* %2, align 4
  %17 = icmp slt i32 %15, %16
  br i1 %17, label %18, label %32

18:                                               ; preds = %14
  %19 = load i32, i32* %3, align 4
  %20 = sext i32 %19 to i64
  %21 = getelementptr inbounds [300 x i32], [300 x i32]* %5, i64 0, i64 %20
  %22 = call i32 (i8*, ...) @__isoc99_scanf(i8* getelementptr inbounds ([3 x i8], [3 x i8]* @.str, i64 0, i64 0), i32* %21)
  %23 = load i32, i32* %9, align 4
  %24 = load i32, i32* %3, align 4
  %25 = sext i32 %24 to i64
  %26 = getelementptr inbounds [300 x i32], [300 x i32]* %5, i64 0, i64 %25
  %27 = load i32, i32* %26, align 4
  %28 = add nsw i32 %23, %27
  store i32 %28, i32* %9, align 4
  br label %29

29:                                               ; preds = %18
  %30 = load i32, i32* %3, align 4
  %31 = add nsw i32 %30, 1
  store i32 %31, i32* %3, align 4
  br label %14

32:                                               ; preds = %14
  %33 = load i32, i32* %9, align 4
  %34 = sitofp i32 %33 to float
  %35 = load i32, i32* %2, align 4
  %36 = sitofp i32 %35 to float
  %37 = fdiv float %34, %36
  store float %37, float* %11, align 4
  store i32 0, i32* %3, align 4
  br label %38

38:                                               ; preds = %86, %32
  %39 = load i32, i32* %3, align 4
  %40 = load i32, i32* %2, align 4
  %41 = icmp slt i32 %39, %40
  br i1 %41, label %42, label %89

42:                                               ; preds = %38
  %43 = load i32, i32* %3, align 4
  %44 = sext i32 %43 to i64
  %45 = getelementptr inbounds [300 x i32], [300 x i32]* %5, i64 0, i64 %44
  %46 = load i32, i32* %45, align 4
  %47 = sitofp i32 %46 to float
  %48 = load float, float* %11, align 4
  %49 = fsub float %47, %48
  %50 = fcmp oge float %49, 0.000000e+00
  br i1 %50, label %51, label %62

51:                                               ; preds = %42
  %52 = load i32, i32* %3, align 4
  %53 = sext i32 %52 to i64
  %54 = getelementptr inbounds [300 x i32], [300 x i32]* %5, i64 0, i64 %53
  %55 = load i32, i32* %54, align 4
  %56 = sitofp i32 %55 to float
  %57 = load float, float* %11, align 4
  %58 = fsub float %56, %57
  %59 = load i32, i32* %3, align 4
  %60 = sext i32 %59 to i64
  %61 = getelementptr inbounds [300 x float], [300 x float]* %6, i64 0, i64 %60
  store float %58, float* %61, align 4
  br label %73

62:                                               ; preds = %42
  %63 = load float, float* %11, align 4
  %64 = load i32, i32* %3, align 4
  %65 = sext i32 %64 to i64
  %66 = getelementptr inbounds [300 x i32], [300 x i32]* %5, i64 0, i64 %65
  %67 = load i32, i32* %66, align 4
  %68 = sitofp i32 %67 to float
  %69 = fsub float %63, %68
  %70 = load i32, i32* %3, align 4
  %71 = sext i32 %70 to i64
  %72 = getelementptr inbounds [300 x float], [300 x float]* %6, i64 0, i64 %71
  store float %69, float* %72, align 4
  br label %73

73:                                               ; preds = %62, %51
  %74 = load i32, i32* %3, align 4
  %75 = sext i32 %74 to i64
  %76 = getelementptr inbounds [300 x float], [300 x float]* %6, i64 0, i64 %75
  %77 = load float, float* %76, align 4
  %78 = load float, float* %12, align 4
  %79 = fcmp ogt float %77, %78
  br i1 %79, label %80, label %85

80:                                               ; preds = %73
  %81 = load i32, i32* %3, align 4
  %82 = sext i32 %81 to i64
  %83 = getelementptr inbounds [300 x float], [300 x float]* %6, i64 0, i64 %82
  %84 = load float, float* %83, align 4
  store float %84, float* %12, align 4
  br label %85

85:                                               ; preds = %80, %73
  br label %86

86:                                               ; preds = %85
  %87 = load i32, i32* %3, align 4
  %88 = add nsw i32 %87, 1
  store i32 %88, i32* %3, align 4
  br label %38

89:                                               ; preds = %38
  store i32 0, i32* %3, align 4
  br label %90

90:                                               ; preds = %112, %89
  %91 = load i32, i32* %3, align 4
  %92 = load i32, i32* %2, align 4
  %93 = icmp slt i32 %91, %92
  br i1 %93, label %94, label %115

94:                                               ; preds = %90
  %95 = load i32, i32* %3, align 4
  %96 = sext i32 %95 to i64
  %97 = getelementptr inbounds [300 x float], [300 x float]* %6, i64 0, i64 %96
  %98 = load float, float* %97, align 4
  %99 = load float, float* %12, align 4
  %100 = fcmp oeq float %98, %99
  br i1 %100, label %101, label %111

101:                                              ; preds = %94
  %102 = load i32, i32* %3, align 4
  %103 = sext i32 %102 to i64
  %104 = getelementptr inbounds [300 x i32], [300 x i32]* %5, i64 0, i64 %103
  %105 = load i32, i32* %104, align 4
  %106 = load i32, i32* %8, align 4
  %107 = sext i32 %106 to i64
  %108 = getelementptr inbounds [300 x i32], [300 x i32]* %7, i64 0, i64 %107
  store i32 %105, i32* %108, align 4
  %109 = load i32, i32* %8, align 4
  %110 = add nsw i32 %109, 1
  store i32 %110, i32* %8, align 4
  br label %111

111:                                              ; preds = %101, %94
  br label %112

112:                                              ; preds = %111
  %113 = load i32, i32* %3, align 4
  %114 = add nsw i32 %113, 1
  store i32 %114, i32* %3, align 4
  br label %90

115:                                              ; preds = %90
  store i32 1, i32* %3, align 4
  br label %116

116:                                              ; preds = %161, %115
  %117 = load i32, i32* %3, align 4
  %118 = load i32, i32* %8, align 4
  %119 = icmp slt i32 %117, %118
  br i1 %119, label %120, label %164

120:                                              ; preds = %116
  store i32 0, i32* %4, align 4
  br label %121

121:                                              ; preds = %157, %120
  %122 = load i32, i32* %4, align 4
  %123 = load i32, i32* %8, align 4
  %124 = load i32, i32* %3, align 4
  %125 = sub nsw i32 %123, %124
  %126 = icmp slt i32 %122, %125
  br i1 %126, label %127, label %160

127:                                              ; preds = %121
  %128 = load i32, i32* %4, align 4
  %129 = sext i32 %128 to i64
  %130 = getelementptr inbounds [300 x i32], [300 x i32]* %7, i64 0, i64 %129
  %131 = load i32, i32* %130, align 4
  %132 = load i32, i32* %4, align 4
  %133 = add nsw i32 %132, 1
  %134 = sext i32 %133 to i64
  %135 = getelementptr inbounds [300 x i32], [300 x i32]* %7, i64 0, i64 %134
  %136 = load i32, i32* %135, align 4
  %137 = icmp sgt i32 %131, %136
  br i1 %137, label %138, label %156

138:                                              ; preds = %127
  %139 = load i32, i32* %4, align 4
  %140 = sext i32 %139 to i64
  %141 = getelementptr inbounds [300 x i32], [300 x i32]* %7, i64 0, i64 %140
  %142 = load i32, i32* %141, align 4
  store i32 %142, i32* %10, align 4
  %143 = load i32, i32* %4, align 4
  %144 = add nsw i32 %143, 1
  %145 = sext i32 %144 to i64
  %146 = getelementptr inbounds [300 x i32], [300 x i32]* %7, i64 0, i64 %145
  %147 = load i32, i32* %146, align 4
  %148 = load i32, i32* %4, align 4
  %149 = sext i32 %148 to i64
  %150 = getelementptr inbounds [300 x i32], [300 x i32]* %7, i64 0, i64 %149
  store i32 %147, i32* %150, align 4
  %151 = load i32, i32* %10, align 4
  %152 = load i32, i32* %4, align 4
  %153 = add nsw i32 %152, 1
  %154 = sext i32 %153 to i64
  %155 = getelementptr inbounds [300 x i32], [300 x i32]* %7, i64 0, i64 %154
  store i32 %151, i32* %155, align 4
  br label %156

156:                                              ; preds = %138, %127
  br label %157

157:                                              ; preds = %156
  %158 = load i32, i32* %4, align 4
  %159 = add nsw i32 %158, 1
  store i32 %159, i32* %4, align 4
  br label %121

160:                                              ; preds = %121
  br label %161

161:                                              ; preds = %160
  %162 = load i32, i32* %3, align 4
  %163 = add nsw i32 %162, 1
  store i32 %163, i32* %3, align 4
  br label %116

164:                                              ; preds = %116
  store i32 0, i32* %3, align 4
  br label %165

165:                                              ; preds = %176, %164
  %166 = load i32, i32* %3, align 4
  %167 = load i32, i32* %8, align 4
  %168 = sub nsw i32 %167, 1
  %169 = icmp slt i32 %166, %168
  br i1 %169, label %170, label %179

170:                                              ; preds = %165
  %171 = load i32, i32* %3, align 4
  %172 = sext i32 %171 to i64
  %173 = getelementptr inbounds [300 x i32], [300 x i32]* %7, i64 0, i64 %172
  %174 = load i32, i32* %173, align 4
  %175 = call i32 (i8*, ...) @printf(i8* getelementptr inbounds ([4 x i8], [4 x i8]* @.str.1, i64 0, i64 0), i32 %174)
  br label %176

176:                                              ; preds = %170
  %177 = load i32, i32* %3, align 4
  %178 = add nsw i32 %177, 1
  store i32 %178, i32* %3, align 4
  br label %165

179:                                              ; preds = %165
  %180 = load i32, i32* %8, align 4
  %181 = sub nsw i32 %180, 1
  %182 = sext i32 %181 to i64
  %183 = getelementptr inbounds [300 x i32], [300 x i32]* %7, i64 0, i64 %182
  %184 = load i32, i32* %183, align 4
  %185 = call i32 (i8*, ...) @printf(i8* getelementptr inbounds ([3 x i8], [3 x i8]* @.str, i64 0, i64 0), i32 %184)
  ret i32 0
}

declare dso_local i32 @__isoc99_scanf(i8*, ...) #1

declare dso_local i32 @printf(i8*, ...) #1


!llvm.module.flags = !{!0}
!llvm.ident = !{!1}

!0 = !{i32 1, !"wchar_size", i32 4}
!1 = !{!"clang version 10.0.0-4ubuntu1 "}
